(dp1
S'params'
p2
(dp3
S'simulation_epoch_size'
p4
I20
sS'slot_err_mode'
p5
I0
sS'trained_model_path'
p6
NsS'diaact_nl_pairs'
p7
S'deep_dialog/data/dia_act_nl_pairs.v6.json'
p8
sS'save_check_point'
p9
I10
sS'episodes'
p10
I200
sS'predict_mode'
p11
I00
sS'cmd_input_mode'
p12
I0
sS'beta'
p13
I1
sS'goal_file_path'
p14
S'deep_dialog/data/training_sample.pickle'
p15
sS'max_turn'
p16
I40
sS'test_path'
p17
S'deep_dialog/data/test_user_goals.pickle'
p18
sS'experience_replay_pool_size'
p19
I1000
sS'write_model_dir'
p20
S'deep_dialog/checkpoints/rl_agent/'
p21
sS'usr'
p22
I1
sS'auto_suggest'
p23
I0
sS'run_mode'
p24
I3
sS'print_testing_mode'
p25
I1
sS'success_rate_threshold'
p26
F0.29999999999999999
sS'nlu_model_path'
p27
S'deep_dialog/models/nlu/lstm_[1468447442.91]_39_80_0.921.p'
p28
sS'epsilon'
p29
I0
sS'batch_size'
p30
I16
sS'learning_phase'
p31
S'all'
p32
sS'nlg_model_path'
p33
S'deep_dialog/models/nlg/lstm_tanh_relu_[1468202263.38]_2_0.610.p'
p34
sS'act_set'
p35
S'deep_dialog/data/dia_acts.txt'
p36
sS'movie_kb_path'
p37
S'deep_dialog/data/movie_kb.1k.p'
p38
sS'alpha'
p39
I0
sS'slot_err_prob'
p40
F0
sS'warm_start'
p41
I1
sS'warm_start_epochs'
p42
I120
sS'dict_path'
p43
S'deep_dialog/data/dicts.v3.p'
p44
sS'intent_err_prob'
p45
F0
sS'utterance_save_path'
p46
S'deep_dialog/checkpoints'
p47
sS'slot_set'
p48
S'deep_dialog/data/slot_set.txt'
p49
sS'act_level'
p50
I0
sS'dqn_hidden_size'
p51
I80
sS'agt'
p52
I14
sS'split_fold'
p53
I5
sS'gamma'
p54
F0.90000000000000002
sS'print_training_mode'
p55
I0
ss.